(ioptparse
Values
p0
(dp1
S'Box'
p2
S'30,2'
p3
sS'OutMaskExtended'
p4
I0
sS'OutName'
p5
S'mask'
p6
sS'RestoredIm'
p7
S'image_009-MFS-image.fits'
p8
sS'OutNameNoiseMap'
p9
S''
p10
sS'ConvNoise'
p11
I0
sS'RevertInput'
p12
I0
sS'BaseImageName'
p13
g10
sS'ds9Mask'
p14
g10
sS'Th'
p15
F7.0
sS'ExternalMask'
p16
g10
sS'UseIslands'
p17
I0
sb.